; Function Attrs: mustprogress uwtable
define void @_ZN32pxrInternal_v0_24__pxrReserved__22SdfNamespaceEditDetailC2ENS0_6ResultERKNS_16SdfNamespaceEditERKNSt7__cxx1112basic_stringIcSt11char_traitsIcESaIcEEE(ptr noundef nonnull align 8 dereferenceable(56) initializes((0, 24)) %0, i32 noundef %1, ptr noundef nonnull readonly align 4 captures(none) dereferenceable(20) %2, ptr noundef nonnull align 8 dereferenceable(32) %3) unnamed_addr #0 align 2 personality ptr @__gxx_personality_v0 {
  store i32 %1, ptr %0, align 8
  %5 = getelementptr inbounds nuw i8, ptr %0, i64 4
  %6 = load i32, ptr %2, align 4
  store i32 %6, ptr %5, align 4
  %.not.i.i.i = icmp eq i32 %6, 0
  br i1 %.not.i.i.i, label %_ZN32pxrInternal_v0_24__pxrReserved__7SdfPathC2ERKS0_.exit.i, label %7

7:                                                ; preds = %4
  %8 = and i32 %6, 255
  %9 = lshr i32 %6, 8
  %10 = zext nneg i32 %8 to i64
  %11 = getelementptr inbounds nuw [257 x ptr], ptr @_ZN32pxrInternal_v0_24__pxrReserved__8Sdf_PoolINS_15Sdf_PathPrimTagELj24ELj8ELj16384EE13_regionStartsE, i64 0, i64 %10
  %12 = load ptr, ptr %11, align 8
  %13 = mul nuw nsw i32 %9, 24
  %14 = zext nneg i32 %13 to i64
  %15 = getelementptr inbounds nuw i8, ptr %12, i64 %14
  %16 = getelementptr inbounds nuw i8, ptr %15, i64 8
  %17 = atomicrmw add ptr %16, i32 1 monotonic, align 4
  br label %_ZN32pxrInternal_v0_24__pxrReserved__7SdfPathC2ERKS0_.exit.i

_ZN32pxrInternal_v0_24__pxrReserved__7SdfPathC2ERKS0_.exit.i: ; preds = %7, %4
  %18 = getelementptr inbounds nuw i8, ptr %0, i64 8
  %19 = getelementptr inbounds nuw i8, ptr %2, i64 4
  %20 = load i32, ptr %19, align 4
  store i32 %20, ptr %18, align 8
  %21 = getelementptr inbounds nuw i8, ptr %0, i64 12
  %22 = getelementptr inbounds nuw i8, ptr %2, i64 8
  %23 = load i32, ptr %22, align 4
  store i32 %23, ptr %21, align 4
  %.not.i.i4.i = icmp eq i32 %23, 0
  br i1 %.not.i.i4.i, label %_ZN32pxrInternal_v0_24__pxrReserved__16SdfNamespaceEditC2ERKS0_.exit, label %24

24:                                               ; preds = %_ZN32pxrInternal_v0_24__pxrReserved__7SdfPathC2ERKS0_.exit.i
  %25 = and i32 %23, 255
  %26 = lshr i32 %23, 8
  %27 = zext nneg i32 %25 to i64
  %28 = getelementptr inbounds nuw [257 x ptr], ptr @_ZN32pxrInternal_v0_24__pxrReserved__8Sdf_PoolINS_15Sdf_PathPrimTagELj24ELj8ELj16384EE13_regionStartsE, i64 0, i64 %27
  %29 = load ptr, ptr %28, align 8
  %30 = mul nuw nsw i32 %26, 24
  %31 = zext nneg i32 %30 to i64
  %32 = getelementptr inbounds nuw i8, ptr %29, i64 %31
  %33 = getelementptr inbounds nuw i8, ptr %32, i64 8
  %34 = atomicrmw add ptr %33, i32 1 monotonic, align 4
  br label %_ZN32pxrInternal_v0_24__pxrReserved__16SdfNamespaceEditC2ERKS0_.exit

_ZN32pxrInternal_v0_24__pxrReserved__16SdfNamespaceEditC2ERKS0_.exit: ; preds = %_ZN32pxrInternal_v0_24__pxrReserved__7SdfPathC2ERKS0_.exit.i, %24
  %35 = getelementptr inbounds nuw i8, ptr %0, i64 16
  %36 = getelementptr inbounds nuw i8, ptr %2, i64 12
  %37 = load i32, ptr %36, align 4
  store i32 %37, ptr %35, align 8
  %38 = getelementptr inbounds nuw i8, ptr %0, i64 20
  %39 = getelementptr inbounds nuw i8, ptr %2, i64 16
  %40 = load i32, ptr %39, align 4
  store i32 %40, ptr %38, align 4
  %41 = getelementptr inbounds nuw i8, ptr %0, i64 24
  invoke void @_ZNSt7__cxx1112basic_stringIcSt11char_traitsIcESaIcEEC1ERKS4_(ptr noundef nonnull align 8 dereferenceable(32) %41, ptr noundef nonnull align 8 dereferenceable(32) %3)
          to label %42 unwind label %43

42:                                               ; preds = %_ZN32pxrInternal_v0_24__pxrReserved__16SdfNamespaceEditC2ERKS0_.exit
  ret void

43:                                               ; preds = %_ZN32pxrInternal_v0_24__pxrReserved__16SdfNamespaceEditC2ERKS0_.exit
  %44 = landingpad { ptr, i32 }
          cleanup
  tail call void @_ZN32pxrInternal_v0_24__pxrReserved__16SdfNamespaceEditD2Ev(ptr noundef nonnull align 4 dereferenceable(20) %5) #24
  resume { ptr, i32 } %44
}